target datalayout = "e-m:e-p270:32:32-p271:32:32-p272:64:64-i64:64-i128:128-f80:128-n8:16:32:64-S128"
target triple = "x86_64-pc-linux-gnu"

%struct.ProbContext = type { [4 x [9 x i8]], [10 x [9 x i8]], [4 x [2 x i8]], [7 x [3 x i8]], [4 x i8], [5 x i8], [5 x [2 x i8]], [5 x i8], [2 x [3 x i8]], [2 x [2 x i8]], [2 x i8], [3 x i8], [3 x i8], [2 x %struct.anon.8], [4 x [4 x [3 x i8]]] }
%struct.anon.8 = type { i8, [10 x i8], i8, [10 x i8], [2 x [3 x i8]], [3 x i8], i8, i8 }
%struct.AVCodecContext = type { ptr, i32, i32, ptr, i32, i32, ptr, ptr, ptr, i64, i32, i32, ptr, i32, %struct.AVRational, %struct.AVRational, %struct.AVRational, i32, i32, i32, i32, i32, %struct.AVRational, i32, i32, i32, i32, i32, i32, i32, i32, i32, i32, i32, ptr, ptr, i32, float, float, float, float, float, float, float, float, float, i32, i32, i32, i32, i32, i32, i32, i32, i32, i32, i32, i32, ptr, ptr, ptr, i32, i32, i32, i32, i32, i32, i32, i32, i32, i32, %struct.AVChannelLayout, i32, i32, i32, i32, i32, i32, i32, i32, ptr, i32, i32, i32, float, float, i32, i32, i32, i32, i32, ptr, i64, i64, float, float, i32, i32, ptr, ptr, i32, i32, i32, i32, i32, ptr, ptr, ptr, ptr, i32, i32, [8 x i64], i32, i32, i32, i32, i32, i32, i32, ptr, ptr, i32, i32, i32, i32, i32, i32, i32, i32, i32, i32, ptr, ptr, i32, i32, ptr, ptr, ptr, ptr, i32, i32, i64, i32, i32, i64, ptr, i64, ptr, i32, ptr, i32 }
%struct.AVRational = type { i32, i32 }
%struct.AVChannelLayout = type { i32, i32, %union.anon.0, ptr }
%union.anon.0 = type { i64 }
%struct.VP9Context = type { %struct.VP9SharedContext, ptr, %struct.VP9DSPContext, %struct.VideoDSPContext, %struct.GetBitContext, %struct.VPXRangeCoder, i32, i32, %union.pthread_mutex_t, %union.pthread_cond_t, ptr, i32, i8, i8, i8, i8, i8, i8, i32, i32, i32, i32, i32, i32, i32, i32, i32, [8 x %struct.ProgressFrame], %struct.anon.6, [4 x %struct.anon.7], %struct.anon.9, ptr, ptr, ptr, [2 x ptr], ptr, ptr, ptr, ptr, ptr, ptr, ptr, ptr, [3 x ptr], ptr, i32, [3 x [2 x i16]], [3 x [2 x i8]], ptr, i32 }
%struct.VP9SharedContext = type { %struct.VP9BitstreamHeader, [8 x %struct.ProgressFrame], [4 x %struct.VP9Frame] }
%struct.VP9BitstreamHeader = type { i8, i8, i8, i8, i8, i8, i8, i8, i8, i32, i8, i8, i8, i8, i8, [3 x i8], [3 x i8], i8, [2 x i8], %struct.anon, %struct.anon.1, i8, i8, i8, i8, i8, %struct.anon.2, i32, i32, %struct.anon.4, i32, i32 }
%struct.anon = type { i8, i8 }
%struct.anon.1 = type { i8, i8, [2 x i8], [4 x i8] }
%struct.anon.2 = type { i8, i8, i8, i8, [7 x i8], [3 x i8], [8 x %struct.anon.3] }
%struct.anon.3 = type { i8, i8, i8, i8, i8, i16, i8, [2 x [2 x i16]], [4 x [2 x i8]] }
%struct.anon.4 = type { i32, i32, i32, i32 }
%struct.VP9Frame = type { %struct.ProgressFrame, ptr, ptr, ptr, i32, ptr }
%struct.ProgressFrame = type { ptr, ptr }
%struct.VP9DSPContext = type { [4 x [15 x ptr]], [5 x [4 x ptr]], [3 x [2 x ptr]], [2 x ptr], [2 x [2 x [2 x ptr]]], [5 x [4 x [2 x [2 x [2 x ptr]]]]], [5 x [4 x [2 x ptr]]] }
%struct.VideoDSPContext = type { ptr, ptr }
%struct.GetBitContext = type { ptr, ptr, i32, i32, i32 }
%struct.VPXRangeCoder = type { i32, i32, ptr, ptr, i32, i32 }
%union.pthread_mutex_t = type { %struct.__pthread_mutex_s }
%struct.__pthread_mutex_s = type { i32, i32, i32, i32, i32, i16, i16, %struct.__pthread_internal_list }
%struct.__pthread_internal_list = type { ptr, ptr }
%union.pthread_cond_t = type { %struct.__pthread_cond_s }
%struct.__pthread_cond_s = type { %union.__atomic_wide_counter, %union.__atomic_wide_counter, [2 x i32], [2 x i32], i32, i32, [2 x i32] }
%union.__atomic_wide_counter = type { i64 }
%struct.anon.6 = type { [64 x i8], [64 x i8] }
%struct.anon.7 = type { %struct.ProbContext, [4 x [2 x [2 x [6 x [6 x [3 x i8]]]]]] }
%struct.anon.9 = type { %struct.ProbContext, [4 x [2 x [2 x [6 x [6 x [11 x i8]]]]]] }

; Function Attrs: nounwind uwtable
define internal i32 @vp9_alloc_entries(ptr noundef %0, i32 noundef %1) #0 {
  %3 = alloca i32, align 4
  %4 = alloca ptr, align 8
  %5 = alloca i32, align 4
  %6 = alloca ptr, align 8
  %7 = alloca i32, align 4
  store ptr %0, ptr %4, align 8, !tbaa !4
  store i32 %1, ptr %5, align 4, !tbaa !31
  call void @llvm.lifetime.start.p0(i64 8, ptr %6) #11
  %8 = load ptr, ptr %4, align 8, !tbaa !4
  %9 = getelementptr inbounds nuw %struct.AVCodecContext, ptr %8, i32 0, i32 6
  %10 = load ptr, ptr %9, align 8, !tbaa !9
  store ptr %10, ptr %6, align 8, !tbaa !29
  %11 = load ptr, ptr %4, align 8, !tbaa !4
  %12 = getelementptr inbounds nuw %struct.AVCodecContext, ptr %11, i32 0, i32 118
  %13 = load i32, ptr %12, align 8, !tbaa !72
  %14 = and i32 %13, 2
  %15 = icmp ne i32 %14, 0
  br i1 %15, label %16, label %36

16:                                               ; preds = %2
  %17 = load ptr, ptr %6, align 8, !tbaa !29
  %18 = getelementptr inbounds nuw %struct.VP9Context, ptr %17, i32 0, i32 10
  %19 = load ptr, ptr %18, align 8, !tbaa !138
  %20 = icmp ne ptr %19, null
  br i1 %20, label %21, label %24

21:                                               ; preds = %16
  %22 = load ptr, ptr %6, align 8, !tbaa !29
  %23 = getelementptr inbounds nuw %struct.VP9Context, ptr %22, i32 0, i32 10
  call void @av_freep(ptr noundef %23)
  br label %24

24:                                               ; preds = %21, %16
  %25 = load i32, ptr %5, align 4, !tbaa !31
  %26 = sext i32 %25 to i64
  %27 = call ptr @av_malloc_array(i64 noundef %26, i64 noundef 4)
  %28 = load ptr, ptr %6, align 8, !tbaa !29
  %29 = getelementptr inbounds nuw %struct.VP9Context, ptr %28, i32 0, i32 10
  store ptr %27, ptr %29, align 8, !tbaa !138
  %30 = load ptr, ptr %6, align 8, !tbaa !29
  %31 = getelementptr inbounds nuw %struct.VP9Context, ptr %30, i32 0, i32 10
  %32 = load ptr, ptr %31, align 8, !tbaa !138
  %33 = icmp ne ptr %32, null
  br i1 %33, label %35, label %34

34:                                               ; preds = %24
  store i32 -12, ptr %3, align 4
  store i32 1, ptr %7, align 4
  br label %37

35:                                               ; preds = %24
  br label %36

36:                                               ; preds = %35, %2
  store i32 0, ptr %3, align 4
  store i32 1, ptr %7, align 4
  br label %37

37:                                               ; preds = %36, %34
  call void @llvm.lifetime.end.p0(i64 8, ptr %6) #11
  %38 = load i32, ptr %3, align 4
  ret i32 %38
}