; Function Attrs: nounwind uwtable
define internal fastcc void @vp9_alloc_entries(ptr noundef readonly captures(none) %0, i32 noundef %1) unnamed_addr #0 {
  %3 = getelementptr inbounds nuw i8, ptr %0, i64 664
  %4 = load i32, ptr %3, align 8, !tbaa !77
  %5 = and i32 %4, 2
  %.not = icmp eq i32 %5, 0
  br i1 %.not, label %15, label %6

6:                                                ; preds = %2
  %7 = getelementptr inbounds nuw i8, ptr %0, i64 32
  %8 = load ptr, ptr %7, align 8, !tbaa !4
  %9 = getelementptr inbounds nuw i8, ptr %8, i64 3208
  %10 = load ptr, ptr %9, align 8, !tbaa !147
  %.not7 = icmp eq ptr %10, null
  br i1 %.not7, label %12, label %11

11:                                               ; preds = %6
  tail call void @av_freep(ptr noundef nonnull %9) #12
  br label %12

12:                                               ; preds = %11, %6
  %13 = sext i32 %1 to i64
  %14 = tail call ptr @av_malloc_array(i64 noundef %13, i64 noundef 4) #12
  store ptr %14, ptr %9, align 8, !tbaa !147
  br label %15

15:                                               ; preds = %12, %2
  ret void
}